; Function Attrs: mustprogress uwtable
define void @_ZN17RichParameterList19pushFromQDomElementE11QDomElement(ptr noundef nonnull align 8 dereferenceable(24) %0, ptr noundef nonnull %1) local_unnamed_addr #9 align 2 personality ptr @__gxx_personality_v0 {
  %3 = alloca ptr, align 8
  store ptr null, ptr %3, align 8
  %4 = call noundef zeroext i1 @_ZN20RichParameterAdapter6createERK11QDomElementRP13RichParameter(ptr noundef nonnull align 8 dereferenceable(8) %1, ptr noundef nonnull align 8 dereferenceable(8) %3)
  br i1 %4, label %5, label %12

5:                                                ; preds = %2
  %6 = call noalias noundef nonnull dereferenceable(24) ptr @_Znwm(i64 noundef 24) #25
  %7 = getelementptr inbounds i8, ptr %6, i64 16
  %8 = load ptr, ptr %3, align 8
  store ptr %8, ptr %7, align 8
  call void @_ZNSt8__detail15_List_node_base7_M_hookEPS0_(ptr noundef nonnull align 8 dereferenceable(16) %6, ptr noundef nonnull %0) #22
  %9 = getelementptr inbounds i8, ptr %0, i64 16
  %10 = load i64, ptr %9, align 8
  %11 = add i64 %10, 1
  store i64 %11, ptr %9, align 8
  br label %12

12:                                               ; preds = %5, %2
  ret void
}